; Function Attrs: nounwind uwtable
define dso_local range(i32 -30, 1) i32 @onig_get_arg_by_callout_args(ptr noundef readonly captures(none) %0, i32 noundef %1, ptr noundef writeonly captures(address_is_null) %2, ptr noundef writeonly captures(address_is_null) %3) local_unnamed_addr #4 {
  %5 = getelementptr inbounds nuw i8, ptr %0, i64 8
  %6 = load i32, ptr %5, align 8, !tbaa !52
  %7 = getelementptr inbounds nuw i8, ptr %0, i64 16
  %8 = load ptr, ptr %7, align 8, !tbaa !156
  %9 = tail call ptr @onig_reg_callout_list_at(ptr noundef %8, i32 noundef %6) #30
  %10 = icmp eq ptr %9, null
  br i1 %10, label %26, label %11

11:                                               ; preds = %4
  %12 = getelementptr inbounds nuw i8, ptr %9, i64 4
  %13 = load i32, ptr %12, align 4, !tbaa !208
  %14 = icmp eq i32 %13, 1
  br i1 %14, label %15, label %26

15:                                               ; preds = %11
  %.not = icmp eq ptr %2, null
  br i1 %.not, label %21, label %16

16:                                               ; preds = %15
  %17 = getelementptr inbounds nuw i8, ptr %9, i64 64
  %18 = sext i32 %1 to i64
  %19 = getelementptr inbounds [4 x i32], ptr %17, i64 0, i64 %18
  %20 = load i32, ptr %19, align 4, !tbaa !56
  store i32 %20, ptr %2, align 4, !tbaa !24
  br label %21

21:                                               ; preds = %16, %15
  %.not16 = icmp eq ptr %3, null
  br i1 %.not16, label %26, label %22

22:                                               ; preds = %21
  %23 = getelementptr inbounds nuw i8, ptr %9, i64 80
  %24 = sext i32 %1 to i64
  %25 = getelementptr inbounds [4 x %union.OnigValue], ptr %23, i64 0, i64 %24
  tail call void @llvm.memcpy.p0.p0.i64(ptr noundef nonnull align 8 dereferenceable(16) %3, ptr noundef nonnull align 8 dereferenceable(16) %25, i64 16, i1 false), !tbaa.struct !55
  br label %26

26:                                               ; preds = %11, %21, %22, %4
  %.0 = phi i32 [ -30, %4 ], [ 0, %22 ], [ 0, %21 ], [ -30, %11 ]
  ret i32 %.0
}